target datalayout = "e-m:e-p270:32:32-p271:32:32-p272:64:64-i64:64-i128:128-f80:128-n8:16:32:64-S128"
target triple = "x86_64-pc-linux-gnu"

%struct.AVFilterContext = type { ptr, ptr, ptr, ptr, ptr, i32, ptr, ptr, i32, ptr, ptr, i32, i32, ptr, ptr, ptr, ptr, i32, ptr, i32, i32 }
%struct.AudioSDRContext = type { i32, i64, double, ptr, [2 x ptr], ptr }
%struct.ChanStats = type { double, double, double }
%struct.AVChannelLayout = type { i32, i32, %union.anon.1, ptr }
%union.anon.1 = type { i64 }
%struct.AVRational = type { i32, i32 }
%struct.AVFrame = type { [8 x ptr], [8 x i32], ptr, i32, i32, i32, i32, i32, %struct.AVRational, i64, i64, %struct.AVRational, i32, ptr, i32, i32, [8 x ptr], ptr, i32, ptr, i32, i32, i32, i32, i32, i32, i32, i64, ptr, i32, ptr, ptr, i64, i64, i64, i64, ptr, %struct.AVChannelLayout, i64 }

; Function Attrs: nounwind uwtable
define internal i32 @sisdr_dblp(ptr noundef %0, ptr noundef %1, i32 noundef %2, i32 noundef %3) #1 {
  %5 = alloca ptr, align 8
  %6 = alloca ptr, align 8
  %7 = alloca i32, align 4
  %8 = alloca i32, align 4
  %9 = alloca ptr, align 8
  %10 = alloca ptr, align 8
  %11 = alloca ptr, align 8
  %12 = alloca i32, align 4
  %13 = alloca i32, align 4
  %14 = alloca i32, align 4
  %15 = alloca i32, align 4
  %16 = alloca i32, align 4
  %17 = alloca i32, align 4
  %18 = alloca ptr, align 8
  %19 = alloca ptr, align 8
  %20 = alloca ptr, align 8
  %21 = alloca double, align 8
  %22 = alloca double, align 8
  %23 = alloca double, align 8
  %24 = alloca i32, align 4
  store ptr %0, ptr %5, align 8, !tbaa !4
  store ptr %1, ptr %6, align 8, !tbaa !69
  store i32 %2, ptr %7, align 4, !tbaa !27
  store i32 %3, ptr %8, align 4, !tbaa !27
  call void @llvm.lifetime.start.p0(i64 8, ptr %9) #7
  %25 = load ptr, ptr %5, align 8, !tbaa !4
  %26 = getelementptr inbounds nuw %struct.AVFilterContext, ptr %25, i32 0, i32 9
  %27 = load ptr, ptr %26, align 8, !tbaa !9
  store ptr %27, ptr %9, align 8, !tbaa !22
  call void @llvm.lifetime.start.p0(i64 8, ptr %10) #7
  %28 = load ptr, ptr %9, align 8, !tbaa !22
  %29 = getelementptr inbounds nuw %struct.AudioSDRContext, ptr %28, i32 0, i32 4
  %30 = getelementptr inbounds [2 x ptr], ptr %29, i64 0, i64 0
  %31 = load ptr, ptr %30, align 8, !tbaa !62
  store ptr %31, ptr %10, align 8, !tbaa !62
  call void @llvm.lifetime.start.p0(i64 8, ptr %11) #7
  %32 = load ptr, ptr %9, align 8, !tbaa !22
  %33 = getelementptr inbounds nuw %struct.AudioSDRContext, ptr %32, i32 0, i32 4
  %34 = getelementptr inbounds [2 x ptr], ptr %33, i64 0, i64 1
  %35 = load ptr, ptr %34, align 8, !tbaa !62
  store ptr %35, ptr %11, align 8, !tbaa !62
  call void @llvm.lifetime.start.p0(i64 4, ptr %12) #7
  %36 = load ptr, ptr %10, align 8, !tbaa !62
  %37 = getelementptr inbounds nuw %struct.AVFrame, ptr %36, i32 0, i32 37
  %38 = getelementptr inbounds nuw %struct.AVChannelLayout, ptr %37, i32 0, i32 1
  %39 = load i32, ptr %38, align 4, !tbaa !70
  store i32 %39, ptr %12, align 4, !tbaa !27
  call void @llvm.lifetime.start.p0(i64 4, ptr %13) #7
  %40 = load i32, ptr %12, align 4, !tbaa !27
  %41 = load i32, ptr %7, align 4, !tbaa !27
  %42 = mul nsw i32 %40, %41
  %43 = load i32, ptr %8, align 4, !tbaa !27
  %44 = sdiv i32 %42, %43
  store i32 %44, ptr %13, align 4, !tbaa !27
  call void @llvm.lifetime.start.p0(i64 4, ptr %14) #7
  %45 = load i32, ptr %12, align 4, !tbaa !27
  %46 = load i32, ptr %7, align 4, !tbaa !27
  %47 = add nsw i32 %46, 1
  %48 = mul nsw i32 %45, %47
  %49 = load i32, ptr %8, align 4, !tbaa !27
  %50 = sdiv i32 %48, %49
  store i32 %50, ptr %14, align 4, !tbaa !27
  call void @llvm.lifetime.start.p0(i64 4, ptr %15) #7
  %51 = load ptr, ptr %10, align 8, !tbaa !62
  %52 = getelementptr inbounds nuw %struct.AVFrame, ptr %51, i32 0, i32 5
  %53 = load i32, ptr %52, align 8, !tbaa !75
  store i32 %53, ptr %15, align 4, !tbaa !27
  call void @llvm.lifetime.start.p0(i64 4, ptr %16) #7
  %54 = load i32, ptr %13, align 4, !tbaa !27
  store i32 %54, ptr %16, align 4, !tbaa !27
  br label %55

55:                                               ; preds = %142, %4
  %56 = load i32, ptr %16, align 4, !tbaa !27
  %57 = load i32, ptr %14, align 4, !tbaa !27
  %58 = icmp slt i32 %56, %57
  br i1 %58, label %60, label %59

59:                                               ; preds = %55
  store i32 2, ptr %17, align 4
  call void @llvm.lifetime.end.p0(i64 4, ptr %16) #7
  br label %145

60:                                               ; preds = %55
  call void @llvm.lifetime.start.p0(i64 8, ptr %18) #7
  %61 = load ptr, ptr %9, align 8, !tbaa !22
  %62 = getelementptr inbounds nuw %struct.AudioSDRContext, ptr %61, i32 0, i32 3
  %63 = load ptr, ptr %62, align 8, !tbaa !33
  %64 = load i32, ptr %16, align 4, !tbaa !27
  %65 = sext i32 %64 to i64
  %66 = getelementptr inbounds %struct.ChanStats, ptr %63, i64 %65
  store ptr %66, ptr %18, align 8, !tbaa !76
  call void @llvm.lifetime.start.p0(i64 8, ptr %19) #7
  %67 = load ptr, ptr %10, align 8, !tbaa !62
  %68 = getelementptr inbounds nuw %struct.AVFrame, ptr %67, i32 0, i32 2
  %69 = load ptr, ptr %68, align 8, !tbaa !77
  %70 = load i32, ptr %16, align 4, !tbaa !27
  %71 = sext i32 %70 to i64
  %72 = getelementptr inbounds ptr, ptr %69, i64 %71
  %73 = load ptr, ptr %72, align 8, !tbaa !78
  store ptr %73, ptr %19, align 8, !tbaa !85
  call void @llvm.lifetime.start.p0(i64 8, ptr %20) #7
  %74 = load ptr, ptr %11, align 8, !tbaa !62
  %75 = getelementptr inbounds nuw %struct.AVFrame, ptr %74, i32 0, i32 2
  %76 = load ptr, ptr %75, align 8, !tbaa !77
  %77 = load i32, ptr %16, align 4, !tbaa !27
  %78 = sext i32 %77 to i64
  %79 = getelementptr inbounds ptr, ptr %76, i64 %78
  %80 = load ptr, ptr %79, align 8, !tbaa !78
  store ptr %80, ptr %20, align 8, !tbaa !85
  call void @llvm.lifetime.start.p0(i64 8, ptr %21) #7
  store double 0.000000e+00, ptr %21, align 8, !tbaa !40
  call void @llvm.lifetime.start.p0(i64 8, ptr %22) #7
  store double 0.000000e+00, ptr %22, align 8, !tbaa !40
  call void @llvm.lifetime.start.p0(i64 8, ptr %23) #7
  store double 0.000000e+00, ptr %23, align 8, !tbaa !40
  call void @llvm.lifetime.start.p0(i64 4, ptr %24) #7
  store i32 0, ptr %24, align 4, !tbaa !27
  br label %81

81:                                               ; preds = %123, %60
  %82 = load i32, ptr %24, align 4, !tbaa !27
  %83 = load i32, ptr %15, align 4, !tbaa !27
  %84 = icmp slt i32 %82, %83
  br i1 %84, label %86, label %85

85:                                               ; preds = %81
  store i32 5, ptr %17, align 4
  call void @llvm.lifetime.end.p0(i64 4, ptr %24) #7
  br label %126

86:                                               ; preds = %81
  %87 = load ptr, ptr %19, align 8, !tbaa !85
  %88 = load i32, ptr %24, align 4, !tbaa !27
  %89 = sext i32 %88 to i64
  %90 = getelementptr inbounds double, ptr %87, i64 %89
  %91 = load double, ptr %90, align 8, !tbaa !40
  %92 = load ptr, ptr %19, align 8, !tbaa !85
  %93 = load i32, ptr %24, align 4, !tbaa !27
  %94 = sext i32 %93 to i64
  %95 = getelementptr inbounds double, ptr %92, i64 %94
  %96 = load double, ptr %95, align 8, !tbaa !40
  %97 = load double, ptr %22, align 8, !tbaa !40
  %98 = call nsz double @llvm.fmuladd.f64(double %91, double %96, double %97)
  store double %98, ptr %22, align 8, !tbaa !40
  %99 = load ptr, ptr %20, align 8, !tbaa !85
  %100 = load i32, ptr %24, align 4, !tbaa !27
  %101 = sext i32 %100 to i64
  %102 = getelementptr inbounds double, ptr %99, i64 %101
  %103 = load double, ptr %102, align 8, !tbaa !40
  %104 = load ptr, ptr %20, align 8, !tbaa !85
  %105 = load i32, ptr %24, align 4, !tbaa !27
  %106 = sext i32 %105 to i64
  %107 = getelementptr inbounds double, ptr %104, i64 %106
  %108 = load double, ptr %107, align 8, !tbaa !40
  %109 = load double, ptr %23, align 8, !tbaa !40
  %110 = call nsz double @llvm.fmuladd.f64(double %103, double %108, double %109)
  store double %110, ptr %23, align 8, !tbaa !40
  %111 = load ptr, ptr %19, align 8, !tbaa !85
  %112 = load i32, ptr %24, align 4, !tbaa !27
  %113 = sext i32 %112 to i64
  %114 = getelementptr inbounds double, ptr %111, i64 %113
  %115 = load double, ptr %114, align 8, !tbaa !40
  %116 = load ptr, ptr %20, align 8, !tbaa !85
  %117 = load i32, ptr %24, align 4, !tbaa !27
  %118 = sext i32 %117 to i64
  %119 = getelementptr inbounds double, ptr %116, i64 %118
  %120 = load double, ptr %119, align 8, !tbaa !40
  %121 = load double, ptr %21, align 8, !tbaa !40
  %122 = call nsz double @llvm.fmuladd.f64(double %115, double %120, double %121)
  store double %122, ptr %21, align 8, !tbaa !40
  br label %123

123:                                              ; preds = %86
  %124 = load i32, ptr %24, align 4, !tbaa !27
  %125 = add nsw i32 %124, 1
  store i32 %125, ptr %24, align 4, !tbaa !27
  br label %81, !llvm.loop !90

126:                                              ; preds = %85
  %127 = load double, ptr %21, align 8, !tbaa !40
  %128 = load ptr, ptr %18, align 8, !tbaa !76
  %129 = getelementptr inbounds nuw %struct.ChanStats, ptr %128, i32 0, i32 2
  %130 = load double, ptr %129, align 8, !tbaa !36
  %131 = fadd nsz double %130, %127
  store double %131, ptr %129, align 8, !tbaa !36
  %132 = load double, ptr %22, align 8, !tbaa !40
  %133 = load ptr, ptr %18, align 8, !tbaa !76
  %134 = getelementptr inbounds nuw %struct.ChanStats, ptr %133, i32 0, i32 0
  %135 = load double, ptr %134, align 8, !tbaa !34
  %136 = fadd nsz double %135, %132
  store double %136, ptr %134, align 8, !tbaa !34
  %137 = load double, ptr %23, align 8, !tbaa !40
  %138 = load ptr, ptr %18, align 8, !tbaa !76
  %139 = getelementptr inbounds nuw %struct.ChanStats, ptr %138, i32 0, i32 1
  %140 = load double, ptr %139, align 8, !tbaa !39
  %141 = fadd nsz double %140, %137
  store double %141, ptr %139, align 8, !tbaa !39
  call void @llvm.lifetime.end.p0(i64 8, ptr %23) #7
  call void @llvm.lifetime.end.p0(i64 8, ptr %22) #7
  call void @llvm.lifetime.end.p0(i64 8, ptr %21) #7
  call void @llvm.lifetime.end.p0(i64 8, ptr %20) #7
  call void @llvm.lifetime.end.p0(i64 8, ptr %19) #7
  call void @llvm.lifetime.end.p0(i64 8, ptr %18) #7
  br label %142

142:                                              ; preds = %126
  %143 = load i32, ptr %16, align 4, !tbaa !27
  %144 = add nsw i32 %143, 1
  store i32 %144, ptr %16, align 4, !tbaa !27
  br label %55, !llvm.loop !91

145:                                              ; preds = %59
  store i32 1, ptr %17, align 4
  call void @llvm.lifetime.end.p0(i64 4, ptr %15) #7
  call void @llvm.lifetime.end.p0(i64 4, ptr %14) #7
  call void @llvm.lifetime.end.p0(i64 4, ptr %13) #7
  call void @llvm.lifetime.end.p0(i64 4, ptr %12) #7
  call void @llvm.lifetime.end.p0(i64 8, ptr %11) #7
  call void @llvm.lifetime.end.p0(i64 8, ptr %10) #7
  call void @llvm.lifetime.end.p0(i64 8, ptr %9) #7
  ret i32 0
}